target datalayout = "e-m:e-p270:32:32-p271:32:32-p272:64:64-i64:64-i128:128-f80:128-n8:16:32:64-S128"
target triple = "x86_64-pc-linux-gnu"

%struct.testVector = type { ptr, ptr, i64, i64 }
%union.wc_Hashes = type { %struct.wc_Sha3 }
%struct.wc_Sha3 = type { [25 x i64], [200 x i8], i8, ptr }
%struct.Hmac = type { %union.wc_Hashes, [36 x i32], [36 x i32], [16 x i32], ptr, i8, i8 }

@devId = internal global i32 -2, align 4
@__const.hmac_md5_test.keys = private unnamed_addr constant [4 x ptr] [ptr @.str.144, ptr @.str.145, ptr @.str.146, ptr @.str.147], align 16
@.str.148 = private unnamed_addr constant [9 x i8] c"Hi There\00", align 1
@.str.149 = private unnamed_addr constant [17 x i8] c"\92\94rz68\BB\1C\13\F4\8E\F8\15\8B\FC\9D\00", align 1
@.str.150 = private unnamed_addr constant [29 x i8] c"what do ya want for nothing?\00", align 1
@.str.151 = private unnamed_addr constant [17 x i8] c"u\0Cx>j\B0\B5\03\EA\A8n1\0A]\B78\00", align 1
@.str.152 = private unnamed_addr constant [51 x i8] c"\DD\DD\DD\DD\DD\DD\DD\DD\DD\DD\DD\DD\DD\DD\DD\DD\DD\DD\DD\DD\DD\DD\DD\DD\DD\DD\DD\DD\DD\DD\DD\DD\DD\DD\DD\DD\DD\DD\DD\DD\DD\DD\DD\DD\DD\DD\DD\DD\DD\DD\00", align 1
@.str.153 = private unnamed_addr constant [17 x i8] c"V\BE4R\1D\14L\88\DB\B8\C73\F0\E8\B3\F6\00", align 1
@.str.154 = private unnamed_addr constant [55 x i8] c"Test Using Larger Than Block-Size Key - Hash Key First\00", align 1
@.str.155 = private unnamed_addr constant [17 x i8] c"k\1A\B7\FEK\D7\BF\8F\0Bb\E6\CEa\B9\D0\CD\00", align 1

; Function Attrs: nounwind uwtable
define dso_local i32 @hmac_md5_test() #0 {
  %1 = alloca i32, align 4
  %2 = alloca %struct.Hmac, align 16
  %3 = alloca [16 x i8], align 16
  %4 = alloca [4 x ptr], align 16
  %5 = alloca %struct.testVector, align 8
  %6 = alloca %struct.testVector, align 8
  %7 = alloca %struct.testVector, align 8
  %8 = alloca %struct.testVector, align 8
  %9 = alloca [4 x %struct.testVector], align 16
  %10 = alloca i32, align 4
  %11 = alloca i32, align 4
  %12 = alloca i32, align 4
  %13 = alloca i32, align 4
  call void @llvm.lifetime.start.p0(i64 784, ptr %2) #10
  call void @llvm.lifetime.start.p0(i64 16, ptr %3) #10
  call void @llvm.lifetime.start.p0(i64 32, ptr %4) #10
  call void @llvm.memcpy.p0.p0.i64(ptr align 16 %4, ptr align 16 @__const.hmac_md5_test.keys, i64 32, i1 false)
  call void @llvm.lifetime.start.p0(i64 32, ptr %5) #10
  call void @llvm.lifetime.start.p0(i64 32, ptr %6) #10
  call void @llvm.lifetime.start.p0(i64 32, ptr %7) #10
  call void @llvm.lifetime.start.p0(i64 32, ptr %8) #10
  call void @llvm.lifetime.start.p0(i64 128, ptr %9) #10
  call void @llvm.lifetime.start.p0(i64 4, ptr %10) #10
  call void @llvm.lifetime.start.p0(i64 4, ptr %11) #10
  store i32 4, ptr %11, align 4, !tbaa !14
  call void @llvm.lifetime.start.p0(i64 4, ptr %12) #10
  br label %14

14:                                               ; preds = %0
  br label %15

15:                                               ; preds = %14
  br label %16

16:                                               ; preds = %15
  %17 = getelementptr inbounds nuw %struct.testVector, ptr %5, i32 0, i32 0
  store ptr @.str.148, ptr %17, align 8, !tbaa !32
  %18 = getelementptr inbounds nuw %struct.testVector, ptr %5, i32 0, i32 1
  store ptr @.str.149, ptr %18, align 8, !tbaa !34
  %19 = getelementptr inbounds nuw %struct.testVector, ptr %5, i32 0, i32 0
  %20 = load ptr, ptr %19, align 8, !tbaa !32
  %21 = call i64 @strlen(ptr noundef %20) #11
  %22 = getelementptr inbounds nuw %struct.testVector, ptr %5, i32 0, i32 2
  store i64 %21, ptr %22, align 8, !tbaa !35
  %23 = getelementptr inbounds nuw %struct.testVector, ptr %5, i32 0, i32 3
  store i64 16, ptr %23, align 8, !tbaa !36
  %24 = getelementptr inbounds nuw %struct.testVector, ptr %6, i32 0, i32 0
  store ptr @.str.150, ptr %24, align 8, !tbaa !32
  %25 = getelementptr inbounds nuw %struct.testVector, ptr %6, i32 0, i32 1
  store ptr @.str.151, ptr %25, align 8, !tbaa !34
  %26 = getelementptr inbounds nuw %struct.testVector, ptr %6, i32 0, i32 0
  %27 = load ptr, ptr %26, align 8, !tbaa !32
  %28 = call i64 @strlen(ptr noundef %27) #11
  %29 = getelementptr inbounds nuw %struct.testVector, ptr %6, i32 0, i32 2
  store i64 %28, ptr %29, align 8, !tbaa !35
  %30 = getelementptr inbounds nuw %struct.testVector, ptr %6, i32 0, i32 3
  store i64 16, ptr %30, align 8, !tbaa !36
  %31 = getelementptr inbounds nuw %struct.testVector, ptr %7, i32 0, i32 0
  store ptr @.str.152, ptr %31, align 8, !tbaa !32
  %32 = getelementptr inbounds nuw %struct.testVector, ptr %7, i32 0, i32 1
  store ptr @.str.153, ptr %32, align 8, !tbaa !34
  %33 = getelementptr inbounds nuw %struct.testVector, ptr %7, i32 0, i32 0
  %34 = load ptr, ptr %33, align 8, !tbaa !32
  %35 = call i64 @strlen(ptr noundef %34) #11
  %36 = getelementptr inbounds nuw %struct.testVector, ptr %7, i32 0, i32 2
  store i64 %35, ptr %36, align 8, !tbaa !35
  %37 = getelementptr inbounds nuw %struct.testVector, ptr %7, i32 0, i32 3
  store i64 16, ptr %37, align 8, !tbaa !36
  %38 = getelementptr inbounds nuw %struct.testVector, ptr %8, i32 0, i32 0
  store ptr @.str.154, ptr %38, align 8, !tbaa !32
  %39 = getelementptr inbounds nuw %struct.testVector, ptr %8, i32 0, i32 1
  store ptr @.str.155, ptr %39, align 8, !tbaa !34
  %40 = getelementptr inbounds nuw %struct.testVector, ptr %8, i32 0, i32 0
  %41 = load ptr, ptr %40, align 8, !tbaa !32
  %42 = call i64 @strlen(ptr noundef %41) #11
  %43 = getelementptr inbounds nuw %struct.testVector, ptr %8, i32 0, i32 2
  store i64 %42, ptr %43, align 8, !tbaa !35
  %44 = getelementptr inbounds nuw %struct.testVector, ptr %8, i32 0, i32 3
  store i64 16, ptr %44, align 8, !tbaa !36
  %45 = getelementptr inbounds [4 x %struct.testVector], ptr %9, i64 0, i64 0
  call void @llvm.memcpy.p0.p0.i64(ptr align 16 %45, ptr align 8 %5, i64 32, i1 false), !tbaa.struct !37
  %46 = getelementptr inbounds [4 x %struct.testVector], ptr %9, i64 0, i64 1
  call void @llvm.memcpy.p0.p0.i64(ptr align 16 %46, ptr align 8 %6, i64 32, i1 false), !tbaa.struct !37
  %47 = getelementptr inbounds [4 x %struct.testVector], ptr %9, i64 0, i64 2
  call void @llvm.memcpy.p0.p0.i64(ptr align 16 %47, ptr align 8 %7, i64 32, i1 false), !tbaa.struct !37
  %48 = getelementptr inbounds [4 x %struct.testVector], ptr %9, i64 0, i64 3
  call void @llvm.memcpy.p0.p0.i64(ptr align 16 %48, ptr align 8 %8, i64 32, i1 false), !tbaa.struct !37
  store i32 0, ptr %12, align 4, !tbaa !14
  br label %49

49:                                               ; preds = %161, %16
  %50 = load i32, ptr %12, align 4, !tbaa !14
  %51 = load i32, ptr %11, align 4, !tbaa !14
  %52 = icmp slt i32 %50, %51
  br i1 %52, label %53, label %164

53:                                               ; preds = %49
  %54 = load i32, ptr @devId, align 4, !tbaa !14
  %55 = call i32 @wc_HmacInit(ptr noundef %2, ptr noundef null, i32 noundef %54)
  store i32 %55, ptr %10, align 4, !tbaa !14
  %56 = load i32, ptr %10, align 4, !tbaa !14
  %57 = icmp ne i32 %56, 0
  br i1 %57, label %58, label %70

58:                                               ; preds = %53
  %59 = load i32, ptr %10, align 4, !tbaa !14
  %60 = sub nsw i32 0, %59
  %61 = zext i32 %60 to i64
  %62 = and i64 %61, 2047
  %63 = trunc i64 %62 to i32
  %64 = sext i32 %63 to i64
  %65 = mul nsw i64 %64, 100000
  %66 = add nsw i64 6462, %65
  %67 = add nsw i64 %66, 536870912
  %68 = sub nsw i64 0, %67
  %69 = trunc i64 %68 to i32
  store i32 %69, ptr %1, align 4
  store i32 1, ptr %13, align 4
  br label %180

70:                                               ; preds = %53
  %71 = load i32, ptr %12, align 4, !tbaa !14
  %72 = sext i32 %71 to i64
  %73 = getelementptr inbounds [4 x ptr], ptr %4, i64 0, i64 %72
  %74 = load ptr, ptr %73, align 8, !tbaa !15
  %75 = load i32, ptr %12, align 4, !tbaa !14
  %76 = sext i32 %75 to i64
  %77 = getelementptr inbounds [4 x ptr], ptr %4, i64 0, i64 %76
  %78 = load ptr, ptr %77, align 8, !tbaa !15
  %79 = call i64 @strlen(ptr noundef %78) #11
  %80 = trunc i64 %79 to i32
  %81 = call i32 @wc_HmacSetKey(ptr noundef %2, i32 noundef 3, ptr noundef %74, i32 noundef %80)
  store i32 %81, ptr %10, align 4, !tbaa !14
  %82 = load i32, ptr %10, align 4, !tbaa !14
  %83 = icmp ne i32 %82, 0
  br i1 %83, label %84, label %96

84:                                               ; preds = %70
  %85 = load i32, ptr %10, align 4, !tbaa !14
  %86 = sub nsw i32 0, %85
  %87 = zext i32 %86 to i64
  %88 = and i64 %87, 2047
  %89 = trunc i64 %88 to i32
  %90 = sext i32 %89 to i64
  %91 = mul nsw i64 %90, 100000
  %92 = add nsw i64 6467, %91
  %93 = add nsw i64 %92, 536870912
  %94 = sub nsw i64 0, %93
  %95 = trunc i64 %94 to i32
  store i32 %95, ptr %1, align 4
  store i32 1, ptr %13, align 4
  br label %180

96:                                               ; preds = %70
  %97 = load i32, ptr %12, align 4, !tbaa !14
  %98 = sext i32 %97 to i64
  %99 = getelementptr inbounds [4 x %struct.testVector], ptr %9, i64 0, i64 %98
  %100 = getelementptr inbounds nuw %struct.testVector, ptr %99, i32 0, i32 0
  %101 = load ptr, ptr %100, align 16, !tbaa !32
  %102 = load i32, ptr %12, align 4, !tbaa !14
  %103 = sext i32 %102 to i64
  %104 = getelementptr inbounds [4 x %struct.testVector], ptr %9, i64 0, i64 %103
  %105 = getelementptr inbounds nuw %struct.testVector, ptr %104, i32 0, i32 2
  %106 = load i64, ptr %105, align 16, !tbaa !35
  %107 = trunc i64 %106 to i32
  %108 = call i32 @wc_HmacUpdate(ptr noundef %2, ptr noundef %101, i32 noundef %107)
  store i32 %108, ptr %10, align 4, !tbaa !14
  %109 = load i32, ptr %10, align 4, !tbaa !14
  %110 = icmp ne i32 %109, 0
  br i1 %110, label %111, label %123

111:                                              ; preds = %96
  %112 = load i32, ptr %10, align 4, !tbaa !14
  %113 = sub nsw i32 0, %112
  %114 = zext i32 %113 to i64
  %115 = and i64 %114, 2047
  %116 = trunc i64 %115 to i32
  %117 = sext i32 %116 to i64
  %118 = mul nsw i64 %117, 100000
  %119 = add nsw i64 6471, %118
  %120 = add nsw i64 %119, 536870912
  %121 = sub nsw i64 0, %120
  %122 = trunc i64 %121 to i32
  store i32 %122, ptr %1, align 4
  store i32 1, ptr %13, align 4
  br label %180

123:                                              ; preds = %96
  %124 = getelementptr inbounds [16 x i8], ptr %3, i64 0, i64 0
  %125 = call i32 @wc_HmacFinal(ptr noundef %2, ptr noundef %124)
  store i32 %125, ptr %10, align 4, !tbaa !14
  %126 = load i32, ptr %10, align 4, !tbaa !14
  %127 = icmp ne i32 %126, 0
  br i1 %127, label %128, label %140

128:                                              ; preds = %123
  %129 = load i32, ptr %10, align 4, !tbaa !14
  %130 = sub nsw i32 0, %129
  %131 = zext i32 %130 to i64
  %132 = and i64 %131, 2047
  %133 = trunc i64 %132 to i32
  %134 = sext i32 %133 to i64
  %135 = mul nsw i64 %134, 100000
  %136 = add nsw i64 6474, %135
  %137 = add nsw i64 %136, 536870912
  %138 = sub nsw i64 0, %137
  %139 = trunc i64 %138 to i32
  store i32 %139, ptr %1, align 4
  store i32 1, ptr %13, align 4
  br label %180

140:                                              ; preds = %123
  %141 = getelementptr inbounds [16 x i8], ptr %3, i64 0, i64 0
  %142 = load i32, ptr %12, align 4, !tbaa !14
  %143 = sext i32 %142 to i64
  %144 = getelementptr inbounds [4 x %struct.testVector], ptr %9, i64 0, i64 %143
  %145 = getelementptr inbounds nuw %struct.testVector, ptr %144, i32 0, i32 1
  %146 = load ptr, ptr %145, align 8, !tbaa !34
  %147 = call i32 @memcmp(ptr noundef %141, ptr noundef %146, i64 noundef 16) #11
  %148 = icmp ne i32 %147, 0
  br i1 %148, label %149, label %160

149:                                              ; preds = %140
  %150 = load i32, ptr %12, align 4, !tbaa !14
  %151 = zext i32 %150 to i64
  %152 = and i64 %151, 2047
  %153 = trunc i64 %152 to i32
  %154 = sext i32 %153 to i64
  %155 = mul nsw i64 %154, 100000
  %156 = add nsw i64 6477, %155
  %157 = add nsw i64 %156, 1610612736
  %158 = sub nsw i64 0, %157
  %159 = trunc i64 %158 to i32
  store i32 %159, ptr %1, align 4
  store i32 1, ptr %13, align 4
  br label %180

160:                                              ; preds = %140
  call void @wc_HmacFree(ptr noundef %2)
  br label %161

161:                                              ; preds = %160
  %162 = load i32, ptr %12, align 4, !tbaa !14
  %163 = add nsw i32 %162, 1
  store i32 %163, ptr %12, align 4, !tbaa !14
  br label %49, !llvm.loop !66

164:                                              ; preds = %49
  %165 = call i32 @wc_HmacSizeByType(i32 noundef 3)
  store i32 %165, ptr %10, align 4, !tbaa !14
  %166 = icmp ne i32 %165, 16
  br i1 %166, label %167, label %179

167:                                              ; preds = %164
  %168 = load i32, ptr %10, align 4, !tbaa !14
  %169 = sub nsw i32 0, %168
  %170 = zext i32 %169 to i64
  %171 = and i64 %170, 2047
  %172 = trunc i64 %171 to i32
  %173 = sext i32 %172 to i64
  %174 = mul nsw i64 %173, 100000
  %175 = add nsw i64 6484, %174
  %176 = add nsw i64 %175, 536870912
  %177 = sub nsw i64 0, %176
  %178 = trunc i64 %177 to i32
  store i32 %178, ptr %1, align 4
  store i32 1, ptr %13, align 4
  br label %180

179:                                              ; preds = %164
  store i32 0, ptr %1, align 4
  store i32 1, ptr %13, align 4
  br label %180

180:                                              ; preds = %179, %167, %149, %128, %111, %84, %58
  call void @llvm.lifetime.end.p0(i64 4, ptr %12) #10
  call void @llvm.lifetime.end.p0(i64 4, ptr %11) #10
  call void @llvm.lifetime.end.p0(i64 4, ptr %10) #10
  call void @llvm.lifetime.end.p0(i64 128, ptr %9) #10
  call void @llvm.lifetime.end.p0(i64 32, ptr %8) #10
  call void @llvm.lifetime.end.p0(i64 32, ptr %7) #10
  call void @llvm.lifetime.end.p0(i64 32, ptr %6) #10
  call void @llvm.lifetime.end.p0(i64 32, ptr %5) #10
  call void @llvm.lifetime.end.p0(i64 32, ptr %4) #10
  call void @llvm.lifetime.end.p0(i64 16, ptr %3) #10
  call void @llvm.lifetime.end.p0(i64 784, ptr %2) #10
  %181 = load i32, ptr %1, align 4
  ret i32 %181
}