; Function Attrs: nounwind uwtable
define dso_local range(i32 -1610919213, 1) i32 @hmac_md5_test() local_unnamed_addr #0 {
  %1 = alloca %struct.Hmac, align 16
  %2 = alloca [16 x i8], align 16
  %3 = alloca [4 x %struct.testVector], align 16
  call void @llvm.lifetime.start.p0(i64 784, ptr nonnull %1) #19
  call void @llvm.lifetime.start.p0(i64 16, ptr nonnull %2) #19
  call void @llvm.lifetime.start.p0(i64 128, ptr nonnull %3) #19
  store ptr @.str.148, ptr %3, align 16, !tbaa !29
  %.sroa.527.0..sroa_idx = getelementptr inbounds nuw i8, ptr %3, i64 8
  store ptr @.str.149, ptr %.sroa.527.0..sroa_idx, align 8, !tbaa !29
  %.sroa.628.0..sroa_idx = getelementptr inbounds nuw i8, ptr %3, i64 16
  store i64 8, ptr %.sroa.628.0..sroa_idx, align 16, !tbaa !27
  %4 = getelementptr inbounds nuw i8, ptr %3, i64 32
  store ptr @.str.150, ptr %4, align 16, !tbaa !29
  %.sroa.523.0..sroa_idx = getelementptr inbounds nuw i8, ptr %3, i64 40
  store ptr @.str.151, ptr %.sroa.523.0..sroa_idx, align 8, !tbaa !29
  %.sroa.624.0..sroa_idx = getelementptr inbounds nuw i8, ptr %3, i64 48
  store i64 28, ptr %.sroa.624.0..sroa_idx, align 16, !tbaa !27
  %5 = getelementptr inbounds nuw i8, ptr %3, i64 64
  store ptr @.str.152, ptr %5, align 16, !tbaa !29
  %.sroa.519.0..sroa_idx = getelementptr inbounds nuw i8, ptr %3, i64 72
  store ptr @.str.153, ptr %.sroa.519.0..sroa_idx, align 8, !tbaa !29
  %.sroa.620.0..sroa_idx = getelementptr inbounds nuw i8, ptr %3, i64 80
  store i64 50, ptr %.sroa.620.0..sroa_idx, align 16, !tbaa !27
  %6 = getelementptr inbounds nuw i8, ptr %3, i64 96
  store ptr @.str.154, ptr %6, align 16, !tbaa !29
  %.sroa.5.0..sroa_idx = getelementptr inbounds nuw i8, ptr %3, i64 104
  store ptr @.str.155, ptr %.sroa.5.0..sroa_idx, align 8, !tbaa !29
  %.sroa.6.0..sroa_idx = getelementptr inbounds nuw i8, ptr %3, i64 112
  store i64 54, ptr %.sroa.6.0..sroa_idx, align 16, !tbaa !27
  br label %7

7:                                                ; preds = %0, %46
  %indvars.iv = phi i64 [ 0, %0 ], [ %indvars.iv.next, %46 ]
  %8 = call i32 @wc_HmacInit(ptr noundef nonnull %1, ptr noundef null, i32 noundef -2) #19
  %.not39 = icmp eq i32 %8, 0
  br i1 %.not39, label %13, label %9

9:                                                ; preds = %7
  %10 = sub nsw i32 0, %8
  %11 = and i32 %10, 2047
  %narrow.neg58 = mul nsw i32 %11, -100000
  %12 = add nsw i32 %narrow.neg58, -536877374
  br label %53

13:                                               ; preds = %7
  %14 = getelementptr inbounds nuw [4 x ptr], ptr @__const.hmac_md5_test.keys, i64 0, i64 %indvars.iv
  %15 = load ptr, ptr %14, align 8, !tbaa !29
  %16 = call i64 @strlen(ptr noundef nonnull dereferenceable(1) %15) #20
  %17 = trunc i64 %16 to i32
  %18 = call i32 @wc_HmacSetKey(ptr noundef nonnull %1, i32 noundef 3, ptr noundef nonnull %15, i32 noundef %17) #19
  %.not40 = icmp eq i32 %18, 0
  br i1 %.not40, label %23, label %19

19:                                               ; preds = %13
  %20 = sub nsw i32 0, %18
  %21 = and i32 %20, 2047
  %narrow.neg55 = mul nsw i32 %21, -100000
  %22 = add nsw i32 %narrow.neg55, -536877379
  br label %53

23:                                               ; preds = %13
  %24 = getelementptr inbounds nuw [4 x %struct.testVector], ptr %3, i64 0, i64 %indvars.iv
  %25 = load ptr, ptr %24, align 16, !tbaa !33
  %26 = getelementptr inbounds nuw i8, ptr %24, i64 16
  %27 = load i64, ptr %26, align 16, !tbaa !35
  %28 = trunc i64 %27 to i32
  %29 = call i32 @wc_HmacUpdate(ptr noundef nonnull %1, ptr noundef %25, i32 noundef %28) #19
  %.not41 = icmp eq i32 %29, 0
  br i1 %.not41, label %34, label %30

30:                                               ; preds = %23
  %31 = sub nsw i32 0, %29
  %32 = and i32 %31, 2047
  %narrow.neg52 = mul nsw i32 %32, -100000
  %33 = add nsw i32 %narrow.neg52, -536877383
  br label %53

34:                                               ; preds = %23
  %35 = call i32 @wc_HmacFinal(ptr noundef nonnull %1, ptr noundef nonnull %2) #19
  %.not42 = icmp eq i32 %35, 0
  br i1 %.not42, label %40, label %36

36:                                               ; preds = %34
  %37 = sub nsw i32 0, %35
  %38 = and i32 %37, 2047
  %narrow.neg49 = mul nsw i32 %38, -100000
  %39 = add nsw i32 %narrow.neg49, -536877386
  br label %53

40:                                               ; preds = %34
  %41 = getelementptr inbounds nuw i8, ptr %24, i64 8
  %42 = load ptr, ptr %41, align 8, !tbaa !36
  %bcmp = call i32 @bcmp(ptr noundef nonnull dereferenceable(16) %2, ptr noundef nonnull dereferenceable(16) %42, i64 16)
  %.not43 = icmp eq i32 %bcmp, 0
  br i1 %.not43, label %46, label %43

43:                                               ; preds = %40
  %44 = trunc nuw nsw i64 %indvars.iv to i32
  %narrow.neg46 = mul nsw i32 %44, -100000
  %45 = add nsw i32 %narrow.neg46, -1610619213
  br label %53

46:                                               ; preds = %40
  call void @wc_HmacFree(ptr noundef nonnull %1) #19
  %indvars.iv.next = add nuw nsw i64 %indvars.iv, 1
  %exitcond.not = icmp eq i64 %indvars.iv.next, 4
  br i1 %exitcond.not, label %47, label %7, !llvm.loop !77

47:                                               ; preds = %46
  %48 = call i32 @wc_HmacSizeByType(i32 noundef 3) #19
  %.not = icmp eq i32 %48, 16
  br i1 %.not, label %53, label %49

49:                                               ; preds = %47
  %50 = sub nsw i32 0, %48
  %51 = and i32 %50, 2047
  %narrow.neg = mul nsw i32 %51, -100000
  %52 = add nsw i32 %narrow.neg, -536877396
  br label %53

53:                                               ; preds = %47, %49, %43, %36, %30, %19, %9
  %.031 = phi i32 [ %12, %9 ], [ %22, %19 ], [ %33, %30 ], [ %39, %36 ], [ %45, %43 ], [ %52, %49 ], [ 0, %47 ]
  call void @llvm.lifetime.end.p0(i64 128, ptr nonnull %3) #19
  call void @llvm.lifetime.end.p0(i64 16, ptr nonnull %2) #19
  call void @llvm.lifetime.end.p0(i64 784, ptr nonnull %1) #19
  ret i32 %.031
}